; Function Attrs: mustprogress uwtable
define noundef i64 @_ZNK2c43yml4Tree5childEmm(ptr noundef nonnull readonly align 8 captures(none) dereferenceable(256) %0, i64 noundef %1, i64 noundef %2) local_unnamed_addr #1 align 2 {
  %4 = alloca [29 x i8], align 16
  %5 = alloca %"struct.c4::yml::Location", align 8
  %.not = icmp eq i64 %1, -1
  br i1 %.not, label %.split, label %.split12

.split12:                                         ; preds = %3
  %6 = load ptr, ptr %0, align 8, !tbaa !116
  %7 = getelementptr inbounds nuw %"struct.c4::yml::NodeData", ptr %6, i64 %1, i32 4
  br label %18

.split:                                           ; preds = %3
  call void @llvm.lifetime.start.p0(i64 29, ptr nonnull %4) #39
  call void @llvm.memcpy.p0.p0.i64(ptr noundef nonnull align 16 dereferenceable(29) %4, ptr noundef nonnull align 16 dereferenceable(29) @__const._ZN2c43yml4Tree17_next_node_modifyEPNS1_13lookup_resultEPNS1_18_lookup_path_tokenE.msg.204, i64 29, i1 false)
  %8 = getelementptr inbounds nuw i8, ptr %0, i64 64
  %9 = getelementptr inbounds nuw i8, ptr %0, i64 88
  %10 = load ptr, ptr %9, align 8, !tbaa !102
  store i64 0, ptr %5, align 8, !tbaa !103
  %11 = getelementptr inbounds nuw i8, ptr %5, i64 8
  store i64 26491, ptr %11, align 8, !tbaa !104
  %12 = getelementptr inbounds nuw i8, ptr %5, i64 16
  store i64 0, ptr %12, align 8, !tbaa !58
  %13 = getelementptr inbounds nuw i8, ptr %5, i64 24
  store ptr @.str, ptr %13, align 8
  %14 = getelementptr inbounds nuw i8, ptr %5, i64 32
  store i64 127, ptr %14, align 8
  %15 = load ptr, ptr %8, align 8, !tbaa !105
  call void %10(ptr noundef nonnull %4, i64 noundef 29, ptr noundef nonnull byval(%"struct.c4::yml::Location") align 8 %5, ptr noundef %15)
  call void @llvm.lifetime.end.p0(i64 29, ptr nonnull %4) #39
  %16 = load ptr, ptr %0, align 8, !tbaa !116
  %17 = getelementptr inbounds nuw i8, ptr %16, i64 -32
  br label %18

18:                                               ; preds = %.split12, %.split
  %19 = phi ptr [ %16, %.split ], [ %6, %.split12 ]
  %phi.call.in = phi ptr [ %17, %.split ], [ %7, %.split12 ]
  %.0915 = load i64, ptr %phi.call.in, align 8, !tbaa !68
  %.not1416 = icmp eq i64 %.0915, -1
  %20 = icmp eq i64 %2, 0
  %or.cond17 = or i1 %.not1416, %20
  br i1 %or.cond17, label %._crit_edge, label %.lr.ph

.lr.ph:                                           ; preds = %18, %.lr.ph
  %.0919 = phi i64 [ %.09, %.lr.ph ], [ %.0915, %18 ]
  %.01018 = phi i64 [ %21, %.lr.ph ], [ 0, %18 ]
  %21 = add nuw i64 %.01018, 1
  %22 = getelementptr inbounds nuw %"struct.c4::yml::NodeData", ptr %19, i64 %.0919, i32 6
  %.09 = load i64, ptr %22, align 8, !tbaa !68
  %.not14 = icmp eq i64 %.09, -1
  %23 = icmp eq i64 %21, %2
  %or.cond = select i1 %.not14, i1 true, i1 %23
  br i1 %or.cond, label %._crit_edge, label %.lr.ph, !llvm.loop !120

._crit_edge:                                      ; preds = %.lr.ph, %18
  %.09.lcssa = phi i64 [ %.0915, %18 ], [ %.09, %.lr.ph ]
  ret i64 %.09.lcssa
}